; Function Attrs: nounwind sspstrong uwtable
define dso_local void @tcg_gen_xori_i32(ptr noundef %0, ptr noundef %1, i32 noundef %2) local_unnamed_addr #2 {
  switch i32 %2, label %25 [
    i32 0, label %4
    i32 -1, label %15
  ]

4:                                                ; preds = %3
  %.not.i = icmp eq ptr %0, %1
  br i1 %.not.i, label %tcg_gen_mov_i32.exit, label %5

5:                                                ; preds = %4
  %6 = tail call align 8 ptr @llvm.threadlocal.address.p0(ptr align 8 @tcg_ctx)
  %7 = load ptr, ptr %6, align 8
  %8 = ptrtoint ptr %0 to i64
  %9 = getelementptr inbounds nuw i8, ptr %7, i64 %8
  %10 = ptrtoint ptr %9 to i64
  %11 = ptrtoint ptr %1 to i64
  %12 = getelementptr inbounds nuw i8, ptr %7, i64 %11
  %13 = ptrtoint ptr %12 to i64
  %14 = tail call ptr @tcg_gen_op2(i32 noundef 5, i32 noundef 0, i64 noundef %10, i64 noundef %13)
  br label %tcg_gen_mov_i32.exit

15:                                               ; preds = %3
  %16 = tail call align 8 ptr @llvm.threadlocal.address.p0(ptr align 8 @tcg_ctx)
  %17 = load ptr, ptr %16, align 8
  %18 = ptrtoint ptr %0 to i64
  %19 = getelementptr inbounds nuw i8, ptr %17, i64 %18
  %20 = ptrtoint ptr %19 to i64
  %21 = ptrtoint ptr %1 to i64
  %22 = getelementptr inbounds nuw i8, ptr %17, i64 %21
  %23 = ptrtoint ptr %22 to i64
  %24 = tail call ptr @tcg_gen_op2(i32 noundef 53, i32 noundef 0, i64 noundef %20, i64 noundef %23)
  br label %tcg_gen_mov_i32.exit

25:                                               ; preds = %3
  %26 = tail call ptr @tcg_constant_i32(i32 noundef %2) #6
  %27 = tail call align 8 ptr @llvm.threadlocal.address.p0(ptr align 8 @tcg_ctx)
  %28 = load ptr, ptr %27, align 8
  %29 = ptrtoint ptr %0 to i64
  %30 = getelementptr inbounds nuw i8, ptr %28, i64 %29
  %31 = ptrtoint ptr %30 to i64
  %32 = ptrtoint ptr %1 to i64
  %33 = getelementptr inbounds nuw i8, ptr %28, i64 %32
  %34 = ptrtoint ptr %33 to i64
  %35 = ptrtoint ptr %26 to i64
  %36 = getelementptr inbounds nuw i8, ptr %28, i64 %35
  %37 = ptrtoint ptr %36 to i64
  %38 = tail call ptr @tcg_gen_op3(i32 noundef 28, i32 noundef 0, i64 noundef %31, i64 noundef %34, i64 noundef %37)
  br label %tcg_gen_mov_i32.exit

tcg_gen_mov_i32.exit:                             ; preds = %5, %4, %15, %25
  ret void
}